Certificate:
    Data:
        Version: 3 (0x2)
        Serial Number:
            28:02:e3:2a:1e:d0:bb:d6:2d:6a:64:c8:f8:20:65:dd:fa:c0:ca:af
        Signature Algorithm: sha256WithRSAEncryption
        Issuer: C=US, ST=California, O=OpenResty, CN=Signing-CA-2
        Validity
            Not Before: Jun 21 12:32:49 2025 GMT
            Not After : May 28 12:32:49 2125 GMT
        Subject: C=US, ST=California, O=OpenResty, CN=test.com
        Subject Public Key Info:
            Public Key Algorithm: rsaEncryption
                Public-Key: (4096 bit)
                Modulus:
                    00:cc:1e:6d:ec:9e:f2:3e:3f:17:3d:de:18:5a:d6:
                    c4:70:99:d3:cd:b1:99:45:e7:ed:82:69:3e:85:d9:
                    1f:d0:bf:de:f6:49:1a:04:d4:c9:76:5c:96:06:4d:
                    81:98:cd:0b:97:15:db:73:de:84:8a:16:0e:3d:08:
                    cc:6f:fc:2c:48:92:4a:2b:98:40:73:f2:4a:5c:ce:
                    72:cb:06:c1:69:a6:7f:f0:6b:0a:4f:6c:8e:62:c6:
                    fd:52:d6:fc:5c:a4:1a:1f:b7:81:7a:9b:30:ef:ad:
                    81:88:ea:b8:c6:95:d8:2a:32:a2:89:d2:b3:9d:d2:
                    99:a6:2d:5a:e4:42:32:12:56:19:5b:f6:2e:37:44:
                    da:84:f6:81:71:4a:8a:3a:ac:84:be:7d:85:aa:3d:
                    e9:ce:45:97:57:2f:5e:21:c3:20:cf:7c:d0:85:4e:
                    bc:03:61:41:1e:3f:87:30:a3:6c:be:a0:32:6a:4f:
                    4b:81:22:b4:9b:c4:34:56:55:1d:07:d7:c3:a6:de:
                    b4:0d:98:e6:58:0d:22:2e:42:72:04:69:93:21:cb:
                    30:78:04:37:66:c9:c7:38:60:b5:d1:b3:a3:27:8a:
                    12:59:e1:4c:cb:7d:72:00:12:d0:5b:ee:79:b9:76:
                    ed:bb:4a:d4:33:a2:c7:e0:4f:af:3c:7f:28:86:e8:
                    67:c2:c9:03:eb:ed:e9:9a:dc:cd:5a:bd:58:21:07:
                    27:53:fc:47:91:08:ce:da:93:d7:c4:4f:5f:c1:85:
                    20:d3:6e:d9:2b:6e:b1:87:46:de:0b:5c:78:b7:9e:
                    15:b2:5c:c9:4b:e1:56:13:34:49:01:92:dd:9d:e9:
                    4f:b1:d9:71:d0:4a:5a:7f:70:71:32:33:48:9a:fd:
                    e6:d2:a4:43:35:45:e9:a7:8d:03:f3:9e:fc:b5:aa:
                    77:7d:95:2c:5d:4f:16:11:aa:b5:38:64:69:5e:94:
                    d8:ec:32:c5:ed:af:70:40:61:da:d7:64:d3:f6:1a:
                    6d:c1:c2:8b:32:d7:b9:df:11:04:1b:b3:d0:93:24:
                    f3:2c:9f:63:9b:23:77:83:dd:eb:a1:b3:54:45:12:
                    7a:3c:33:78:f0:61:6c:08:a5:fd:d9:54:fd:d4:69:
                    2f:52:20:68:e9:45:00:f7:a3:65:d1:9d:f0:e2:67:
                    10:05:db:8a:56:07:82:eb:ee:e6:63:e5:43:b9:e4:
                    aa:64:72:1c:14:3c:21:25:f9:b2:5f:ec:f6:f7:82:
                    d8:7d:d2:a2:7d:fa:c9:8a:f2:33:db:c6:70:66:a5:
                    e2:68:8d:1a:76:44:31:5d:4b:6b:ce:cb:69:8e:f1:
                    9e:30:51:b3:f2:41:d8:f0:c1:07:ed:9a:26:f6:8b:
                    a0:86:43
                Exponent: 65537 (0x10001)
        X509v3 extensions:
            X509v3 Basic Constraints: 
                CA:FALSE
            Netscape Cert Type: 
                SSL Server
            Netscape Comment: 
                OpenSSL Generated Certificate
            X509v3 Subject Key Identifier: 
                4C:1D:FF:4A:A0:50:E2:F9:CB:80:E2:5C:DE:75:10:9E:EA:58:29:0B
            X509v3 Authority Key Identifier: 
                92:94:BF:A7:B4:38:25:CB:E6:55:A7:69:47:EC:3F:79:77:0D:64:8E
    Signature Algorithm: sha256WithRSAEncryption
    Signature Value:
        7f:fa:a5:17:11:25:7e:0a:90:42:06:d9:b9:14:a7:a7:b0:7e:
        37:32:21:8a:f4:4e:00:71:4b:af:70:b8:47:47:d6:8b:9c:2b:
        d1:e3:78:c0:fd:4e:f7:bc:d9:56:e7:90:48:78:66:d7:e9:19:
        a5:7f:73:83:e0:60:ea:c9:f3:d5:2d:cf:6f:a9:87:b4:16:fb:
        53:c0:43:50:ee:a4:3c:87:34:d2:d4:5b:da:d7:1d:6d:9c:45:
        be:b9:3d:c4:4a:cc:cb:4a:90:d9:36:9d:09:3d:44:8e:bd:ab:
        e9:91:3d:f3:23:0c:34:b5:0f:56:ec:8f:db:8c:95:b8:ee:65:
        5a:31:fc:dc:eb:1e:b0:02:62:e2:42:6f:d9:19:68:06:11:67:
        34:06:c4:74:92:ac:ad:69:2b:64:65:10:37:20:fe:de:24:00:
        99:b2:bc:2d:f9:90:0c:8b:80:22:da:ca:f3:de:62:1a:21:52:
        5e:a8:71:ae:14:23:a7:f5:1c:7f:d2:81:27:6e:fb:a1:07:da:
        8a:ab:27:f3:85:67:f4:80:e7:6b:d1:57:0f:63:40:7b:a5:31:
        cb:99:7e:5b:6e:d6:c9:c0:e2:57:42:9a:dd:6a:49:a2:35:49:
        af:2e:c1:ad:39:8d:c1:ec:8e:06:f8:70:ed:b7:92:d1:10:70:
        39:04:35:b8:44:fd:de:74:55:8e:99:c1:bc:c6:41:33:aa:9b:
        5f:0f:d9:7f:6a:7a:fb:ab:7b:f6:e8:af:6a:18:1e:09:b0:54:
        58:e8:11:79:87:4e:ad:95:7f:d9:ed:24:c2:86:3b:52:d4:69:
        ce:92:15:f6:5a:c7:64:21:fa:7a:4e:a4:cf:b0:01:2e:90:c6:
        4a:32:d7:9b:49:77:33:56:dd:4b:50:21:33:9c:49:d4:60:fa:
        5c:7f:cb:b3:ef:bd:a2:cb:d3:9a:43:c3:6b:a7:18:9d:c9:ed:
        71:0e:dc:ac:1e:c7:44:ae:45:91:05:69:1e:a8:06:17:ef:f0:
        3f:01:c1:b1:9d:a0:b6:6a:63:25:cc:71:a8:18:40:58:2a:33:
        43:77:93:f3:55:52:d1:c9:ad:d6:17:7a:5d:30:f4:ca:35:35:
        53:d9:23:64:dc:9f:29:6d:7e:ff:a7:c6:2e:99:fe:40:99:5a:
        f4:ba:48:e8:2f:9b:95:80:3f:7a:76:d5:77:de:20:d3:89:0f:
        17:80:88:95:ca:3f:20:94:2b:79:67:4b:1c:70:bd:54:95:72:
        a8:e9:fc:dc:c3:8a:34:d2:a3:db:c1:8f:1e:f2:6f:93:b0:99:
        a5:52:64:fc:9e:1a:0a:49:4d:3f:a7:c1:d8:46:36:24:cb:57:
        2a:5b:08:cf:e4:2a:3f:6a
-----BEGIN CERTIFICATE-----
MIIFtjCCA56gAwIBAgIUKALjKh7Qu9YtamTI+CBl3frAyq8wDQYJKoZIhvcNAQEL
BQAwTTELMAkGA1UEBhMCVVMxEzARBgNVBAgMCkNhbGlmb3JuaWExEjAQBgNVBAoM
CU9wZW5SZXN0eTEVMBMGA1UEAwwMU2lnbmluZy1DQS0yMCAXDTI1MDYyMTEyMzI0
OVoYDzIxMjUwNTI4MTIzMjQ5WjBJMQswCQYDVQQGEwJVUzETMBEGA1UECAwKQ2Fs
aWZvcm5pYTESMBAGA1UECgwJT3BlblJlc3R5MREwDwYDVQQDDAh0ZXN0LmNvbTCC
AiIwDQYJKoZIhvcNAQEBBQADggIPADCCAgoCggIBAMwebeye8j4/Fz3eGFrWxHCZ
082xmUXn7YJpPoXZH9C/3vZJGgTUyXZclgZNgZjNC5cV23PehIoWDj0IzG/8LEiS
SiuYQHPySlzOcssGwWmmf/BrCk9sjmLG/VLW/FykGh+3gXqbMO+tgYjquMaV2Coy
oonSs53SmaYtWuRCMhJWGVv2LjdE2oT2gXFKijqshL59hao96c5Fl1cvXiHDIM98
0IVOvANhQR4/hzCjbL6gMmpPS4EitJvENFZVHQfXw6betA2Y5lgNIi5CcgRpkyHL
MHgEN2bJxzhgtdGzoyeKElnhTMt9cgAS0Fvuebl27btK1DOix+BPrzx/KIboZ8LJ
A+vt6ZrczVq9WCEHJ1P8R5EIztqT18RPX8GFINNu2StusYdG3gtceLeeFbJcyUvh
VhM0SQGS3Z3pT7HZcdBKWn9wcTIzSJr95tKkQzVF6aeNA/Oe/LWqd32VLF1PFhGq
tThkaV6U2Owyxe2vcEBh2tdk0/YabcHCizLXud8RBBuz0JMk8yyfY5sjd4Pd66Gz
VEUSejwzePBhbAil/dlU/dRpL1IgaOlFAPejZdGd8OJnEAXbilYHguvu5mPlQ7nk
qmRyHBQ8ISX5sl/s9veC2H3Son36yYryM9vGcGal4miNGnZEMV1La87LaY7xnjBR
s/JB2PDBB+2aJvaLoIZDAgMBAAGjgY8wgYwwCQYDVR0TBAIwADARBglghkgBhvhC
AQEEBAMCBkAwLAYJYIZIAYb4QgENBB8WHU9wZW5TU0wgR2VuZXJhdGVkIENlcnRp
ZmljYXRlMB0GA1UdDgQWBBRMHf9KoFDi+cuA4lzedRCe6lgpCzAfBgNVHSMEGDAW
gBSSlL+ntDgly+ZVp2lH7D95dw1kjjANBgkqhkiG9w0BAQsFAAOCAgEAf/qlFxEl
fgqQQgbZuRSnp7B+NzIhivROAHFLr3C4R0fWi5wr0eN4wP1O97zZVueQSHhm1+kZ
pX9zg+Bg6snz1S3Pb6mHtBb7U8BDUO6kPIc00tRb2tcdbZxFvrk9xErMy0qQ2Tad
CT1Ejr2r6ZE98yMMNLUPVuyP24yVuO5lWjH83OsesAJi4kJv2RloBhFnNAbEdJKs
rWkrZGUQNyD+3iQAmbK8LfmQDIuAItrK895iGiFSXqhxrhQjp/Ucf9KBJ277oQfa
iqsn84Vn9IDna9FXD2NAe6Uxy5l+W27WycDiV0Ka3WpJojVJry7BrTmNweyOBvhw
7beS0RBwOQQ1uET93nRVjpnBvMZBM6qbXw/Zf2p6+6t79uivahgeCbBUWOgReYdO
rZV/2e0kwoY7UtRpzpIV9lrHZCH6ek6kz7ABLpDGSjLXm0l3M1bdS1AhM5xJ1GD6
XH/Ls++9osvTmkPDa6cYncntcQ7crB7HRK5FkQVpHqgGF+/wPwHBsZ2gtmpjJcxx
qBhAWCozQ3eT81VS0cmt1hd6XTD0yjU1U9kjZNyfKW1+/6fGLpn+QJla9LpI6C+b
lYA/enbVd94g04kPF4CIlco/IJQreWdLHHC9VJVyqOn83MOKNNKj28GPHvJvk7CZ
pVJk/J4aCklNP6fB2EY2JMtXKlsIz+QqP2o=
-----END CERTIFICATE-----
Certificate:
    Data:
        Version: 3 (0x2)
        Serial Number:
            44:38:44:78:9a:6b:d5:96:7a:ab:b7:a0:83:a1:b7:01:6c:91:b7:86
        Signature Algorithm: sha256WithRSAEncryption
        Issuer: C=US, ST=California, L=San Francisco, O=OpenResty, CN=Root CA
        Validity
            Not Before: Jun 21 12:19:06 2025 GMT
            Not After : May 28 12:19:06 2125 GMT
        Subject: C=US, ST=California, O=OpenResty, CN=Signing-CA-1
        Subject Public Key Info:
            Public Key Algorithm: rsaEncryption
                Public-Key: (4096 bit)
                Modulus:
                    00:9b:b4:55:fe:bc:c5:13:6f:72:2b:3f:f9:d0:e7:
                    fd:25:e2:2e:9d:f9:62:ad:ad:c4:7f:31:68:ec:0d:
                    a8:e0:09:88:e5:a3:ea:73:53:95:cd:5c:97:ff:59:
                    26:d9:88:de:67:1f:ae:54:1f:9e:c7:b6:24:cc:bc:
                    95:70:36:9a:cb:9b:76:53:f9:52:bc:53:98:11:fc:
                    4d:08:a5:fc:57:f8:1e:3e:d1:21:b6:0f:41:e1:07:
                    4e:8b:45:64:05:9a:20:7f:7d:73:cf:6b:39:ad:c3:
                    36:b6:0f:89:29:74:2e:50:15:6d:80:cd:df:8d:c3:
                    33:ad:89:92:86:0f:67:4b:9d:bf:a5:b3:59:24:a6:
                    f0:08:f7:fd:ab:27:dd:fe:aa:c0:a1:7c:c0:4d:67:
                    77:23:8d:e8:6a:b1:f9:36:11:cf:64:a1:26:d4:82:
                    30:66:32:bc:9a:61:ab:21:a5:c3:3a:96:8f:21:6a:
                    09:e2:03:b0:2c:cb:aa:b0:ef:c6:1f:fb:64:b3:fd:
                    07:04:f9:78:49:ba:be:dc:7f:5e:4a:ab:e6:5d:18:
                    fc:ab:41:7c:b4:8b:b7:51:57:28:04:2b:82:8b:1d:
                    ae:b5:8d:9a:42:dc:66:f8:e5:c6:be:37:c0:54:51:
                    87:33:65:d7:82:95:26:9f:dc:e3:13:52:3b:c1:8b:
                    91:b3:19:43:85:2e:f7:a9:25:be:a1:95:0a:97:95:
                    6e:76:8a:7b:8a:5b:12:f2:da:82:5d:03:45:e9:e1:
                    35:69:df:3e:ad:fc:97:2d:c7:d8:68:e7:0a:88:63:
                    1f:17:aa:19:7d:ac:e7:f9:4c:f7:31:81:8b:c6:2f:
                    d1:f9:ab:f7:0e:f1:b2:b8:08:d5:0c:61:ef:65:68:
                    95:fd:c3:7e:0d:9e:4c:14:3b:af:1a:3f:9c:1e:9d:
                    5d:1d:9a:e8:11:dd:9a:93:c3:ef:21:04:de:4b:6f:
                    2c:dc:39:0e:0d:1b:ca:61:83:37:6f:d7:d7:90:fa:
                    43:e9:8f:e7:54:67:c4:3f:bc:3f:4d:01:6f:66:1c:
                    1a:c6:4f:56:a1:ab:ca:e5:ca:f3:a5:ac:7f:b4:9a:
                    6b:da:46:6a:9e:ae:6b:da:c6:9e:a6:05:f1:48:13:
                    ee:5b:a3:53:cc:fe:81:27:21:1b:e4:ce:7a:6a:bb:
                    c1:40:14:cd:f1:5c:88:3f:65:05:11:f7:e6:f7:b0:
                    d4:dd:26:e3:27:07:e3:b3:09:ab:1f:f8:27:b1:11:
                    d6:03:37:82:9a:69:2b:0a:da:16:35:6f:59:03:6e:
                    c6:ef:d0:03:b2:39:6e:44:70:13:b5:02:8f:d8:1d:
                    78:1d:05:52:b8:db:92:18:a8:7b:79:a2:75:ca:2a:
                    b1:e4:b7
                Exponent: 65537 (0x10001)
        X509v3 extensions:
            X509v3 Subject Key Identifier: 
                8E:B0:26:BC:3A:A3:FC:09:95:09:11:EC:56:27:F4:50:BA:2D:A4:08
            X509v3 Authority Key Identifier: 
                38:EA:6B:B1:87:AD:98:E2:C2:EA:79:60:4E:0E:2C:49:30:5A:5F:1F
            X509v3 Basic Constraints: critical
                CA:TRUE
    Signature Algorithm: sha256WithRSAEncryption
    Signature Value:
        0c:01:de:59:f1:a6:10:0e:eb:a1:46:2e:50:0c:e8:a0:2a:22:
        cb:9a:91:03:06:6c:24:0b:d7:10:ec:bc:19:e7:6c:e5:32:07:
        0a:61:99:85:3e:50:da:f9:4e:37:73:ad:e9:65:0c:f4:0a:2d:
        47:ee:2f:2d:c6:cf:58:d3:40:4a:a0:3e:9e:90:40:ab:26:5f:
        ec:25:56:95:a9:6d:e5:26:bd:e4:be:a5:9e:68:0e:14:c9:2c:
        f4:38:4a:fd:af:08:4d:5f:d0:6c:6f:bd:a9:57:df:a2:93:c5:
        74:76:cb:a9:84:6c:60:eb:8c:ff:18:09:e2:af:4d:ec:6c:ba:
        bf:f8:01:68:d3:61:d6:90:28:0e:78:df:fc:84:93:ab:fc:51:
        44:c0:97:e9:0e:84:09:a0:c7:22:a8:58:96:f4:da:df:a2:b9:
        cc:b6:59:03:17:2e:6c:eb:98:e1:89:f1:02:88:18:1a:97:61:
        c4:6d:e7:e4:90:f7:f1:3d:b0:e0:16:62:ea:33:5d:dc:51:df:
        ab:67:a4:a9:23:fd:d5:ad:95:0e:a2:c8:5b:97:85:74:c8:cf:
        aa:28:ef:9b:53:27:26:a3:6b:12:f8:52:ad:74:83:fd:63:37:
        01:17:92:93:82:df:85:4c:9d:e3:57:2b:f0:b0:3b:f6:24:fd:
        4b:7a:c0:f7:5b:f8:c6:97:ee:65:d8:7b:d1:ca:be:bf:ba:bf:
        c7:45:a0:87:20:b0:a2:09:f5:2d:80:0b:db:29:9c:9b:34:62:
        83:ce:0d:98:32:7b:2e:5e:64:a2:98:c5:d9:03:ca:82:5d:2b:
        d7:20:cc:dd:ef:15:3a:a6:c8:7d:ea:3d:de:8a:c3:6f:1b:6c:
        88:9e:94:11:9f:8c:55:1d:3c:f2:73:90:ff:35:e6:ac:6a:8d:
        e6:00:bd:27:34:df:74:64:42:50:8e:2e:6a:9f:de:7f:3c:4d:
        a9:de:69:94:61:11:75:7d:34:5e:c2:be:32:60:8c:d1:70:c1:
        64:a7:db:e1:ed:1a:14:af:05:3f:59:00:e8:43:fd:2a:c0:78:
        c0:c3:78:88:b7:cb:21:6f:b7:22:7f:d8:b8:72:c4:b0:4f:cb:
        96:8e:2a:d4:c7:31:85:40:e9:b9:56:97:ba:08:31:fd:9e:d8:
        59:82:61:0c:08:e1:3b:88:ef:29:ae:c3:46:53:16:0a:e1:e5:
        97:2a:6e:ef:dd:e7:0f:4d:c1:19:f2:21:4c:6e:ac:d6:e2:e4:
        37:04:42:dd:fa:ef:36:47:80:80:3c:d1:b9:45:e2:ec:59:07:
        2f:37:a1:3a:83:c3:73:9d:ca:75:b4:2f:57:93:ff:53:aa:c2:
        e7:27:12:34:1f:0d:7a:c7
-----BEGIN CERTIFICATE-----
MIIFkDCCA3igAwIBAgIURDhEeJpr1ZZ6q7egg6G3AWyRt4YwDQYJKoZIhvcNAQEL
BQAwYDELMAkGA1UEBhMCVVMxEzARBgNVBAgMCkNhbGlmb3JuaWExFjAUBgNVBAcM
DVNhbiBGcmFuY2lzY28xEjAQBgNVBAoMCU9wZW5SZXN0eTEQMA4GA1UEAwwHUm9v
dCBDQTAgFw0yNTA2MjExMjE5MDZaGA8yMTI1MDUyODEyMTkwNlowTTELMAkGA1UE
BhMCVVMxEzARBgNVBAgMCkNhbGlmb3JuaWExEjAQBgNVBAoMCU9wZW5SZXN0eTEV
MBMGA1UEAwwMU2lnbmluZy1DQS0xMIICIjANBgkqhkiG9w0BAQEFAAOCAg8AMIIC
CgKCAgEAm7RV/rzFE29yKz/50Of9JeIunflira3EfzFo7A2o4AmI5aPqc1OVzVyX
/1km2YjeZx+uVB+ex7YkzLyVcDaay5t2U/lSvFOYEfxNCKX8V/gePtEhtg9B4QdO
i0VkBZogf31zz2s5rcM2tg+JKXQuUBVtgM3fjcMzrYmShg9nS52/pbNZJKbwCPf9
qyfd/qrAoXzATWd3I43oarH5NhHPZKEm1IIwZjK8mmGrIaXDOpaPIWoJ4gOwLMuq
sO/GH/tks/0HBPl4Sbq+3H9eSqvmXRj8q0F8tIu3UVcoBCuCix2utY2aQtxm+OXG
vjfAVFGHM2XXgpUmn9zjE1I7wYuRsxlDhS73qSW+oZUKl5Vudop7ilsS8tqCXQNF
6eE1ad8+rfyXLcfYaOcKiGMfF6oZfazn+Uz3MYGLxi/R+av3DvGyuAjVDGHvZWiV
/cN+DZ5MFDuvGj+cHp1dHZroEd2ak8PvIQTeS28s3DkODRvKYYM3b9fXkPpD6Y/n
VGfEP7w/TQFvZhwaxk9WoavK5crzpax/tJpr2kZqnq5r2saepgXxSBPuW6NTzP6B
JyEb5M56arvBQBTN8VyIP2UFEffm97DU3SbjJwfjswmrH/gnsRHWAzeCmmkrCtoW
NW9ZA27G79ADsjluRHATtQKP2B14HQVSuNuSGKh7eaJ1yiqx5LcCAwEAAaNTMFEw
HQYDVR0OBBYEFI6wJrw6o/wJlQkR7FYn9FC6LaQIMB8GA1UdIwQYMBaAFDjqa7GH
rZjiwup5YE4OLEkwWl8fMA8GA1UdEwEB/wQFMAMBAf8wDQYJKoZIhvcNAQELBQAD
ggIBAAwB3lnxphAO66FGLlAM6KAqIsuakQMGbCQL1xDsvBnnbOUyBwphmYU+UNr5
TjdzrellDPQKLUfuLy3Gz1jTQEqgPp6QQKsmX+wlVpWpbeUmveS+pZ5oDhTJLPQ4
Sv2vCE1f0GxvvalX36KTxXR2y6mEbGDrjP8YCeKvTexsur/4AWjTYdaQKA543/yE
k6v8UUTAl+kOhAmgxyKoWJb02t+iucy2WQMXLmzrmOGJ8QKIGBqXYcRt5+SQ9/E9
sOAWYuozXdxR36tnpKkj/dWtlQ6iyFuXhXTIz6oo75tTJyajaxL4Uq10g/1jNwEX
kpOC34VMneNXK/CwO/Yk/Ut6wPdb+MaX7mXYe9HKvr+6v8dFoIcgsKIJ9S2AC9sp
nJs0YoPODZgyey5eZKKYxdkDyoJdK9cgzN3vFTqmyH3qPd6Kw28bbIielBGfjFUd
PPJzkP815qxqjeYAvSc033RkQlCOLmqf3n88TaneaZRhEXV9NF7CvjJgjNFwwWSn
2+HtGhSvBT9ZAOhD/SrAeMDDeIi3yyFvtyJ/2LhyxLBPy5aOKtTHMYVA6blWl7oI
Mf2e2FmCYQwI4TuI7ymuw0ZTFgrh5Zcqbu/d5w9NwRnyIUxurNbi5DcEQt367zZH
gIA80blF4uxZBy83oTqDw3OdynW0L1eT/1OqwucnEjQfDXrH
-----END CERTIFICATE-----
Certificate:
    Data:
        Version: 3 (0x2)
        Serial Number:
            29:2c:51:02:23:8b:2d:29:88:38:c2:80:f4:87:5f:58:c0:5b:af:ef
        Signature Algorithm: sha256WithRSAEncryption
        Issuer: C=US, ST=California, O=OpenResty, CN=Signing-CA-1
        Validity
            Not Before: Jun 21 12:19:16 2025 GMT
            Not After : May 28 12:19:16 2125 GMT
        Subject: C=US, ST=California, O=OpenResty, CN=Signing-CA-2
        Subject Public Key Info:
            Public Key Algorithm: rsaEncryption
                Public-Key: (4096 bit)
                Modulus:
                    00:f9:87:28:d2:24:cf:76:c3:42:a7:18:6c:54:b8:
                    6f:34:95:84:3c:0f:49:80:83:86:a1:f0:b8:6d:36:
                    df:63:39:18:e6:8d:0b:9a:04:6b:af:83:a6:6b:56:
                    2b:9a:8e:8d:a9:7f:3b:4b:96:e9:84:07:9f:c4:13:
                    2b:92:7c:32:76:2a:3c:df:9d:b1:d4:da:59:9b:5f:
                    79:b8:eb:55:41:3b:e3:f6:e7:b3:99:fa:99:55:d5:
                    11:4d:9e:94:fe:42:7d:39:3f:61:0d:df:7a:01:01:
                    a7:2c:d5:c3:2f:cc:14:e2:38:6b:e7:ac:98:05:50:
                    84:1e:c8:b7:84:c5:18:a5:9b:9f:27:2c:ab:1a:c5:
                    8c:3f:58:c0:0f:84:e8:69:5e:01:36:24:1e:7b:e4:
                    3c:da:09:1b:ff:bf:cf:8b:39:17:3f:9f:dd:7e:ae:
                    4e:84:a5:29:d7:a0:f5:35:28:87:b4:2b:0c:65:cc:
                    1f:94:fb:b1:47:7b:8d:05:49:35:c1:68:ee:9a:5d:
                    96:e6:e7:a8:06:36:fb:1a:df:fb:67:28:4a:ea:36:
                    ae:16:07:5c:92:43:4c:b1:25:9f:32:f4:e9:8a:60:
                    6e:ed:1e:f0:ab:2a:f9:f8:a7:68:60:61:38:44:23:
                    3c:eb:4d:04:c9:e7:ea:f0:c1:6e:f7:28:e1:06:a4:
                    0f:a9:03:6b:3b:9d:78:97:ac:0c:b7:7f:21:fd:f5:
                    94:8f:5e:e8:f5:f2:6b:be:92:54:33:db:97:e0:17:
                    85:96:3e:8d:71:6c:d8:9f:3a:7e:3a:4f:a8:d5:f3:
                    c2:44:1b:34:de:4b:7e:e1:b1:99:31:c5:20:39:cf:
                    c7:44:11:5c:b0:07:bc:65:8a:d4:ae:a5:36:19:c9:
                    4c:0a:f5:02:0e:e8:cd:30:25:7c:43:c9:de:ad:8e:
                    87:56:3a:40:e8:da:bb:45:4c:a5:39:df:fa:34:8e:
                    38:4a:e0:b1:b3:9c:de:86:93:44:25:31:fc:54:a4:
                    c3:e1:b3:9e:78:2c:8c:bd:52:03:9c:16:64:a2:90:
                    0a:dc:05:b0:7f:6d:18:cc:5b:59:5e:a0:b8:10:ad:
                    fd:70:18:59:2c:81:87:b2:47:05:8b:d2:c6:af:64:
                    cb:e6:bc:75:ed:dd:e7:2c:9c:cf:0d:54:b1:20:b9:
                    6b:e4:72:1a:9c:13:be:bd:f9:08:b7:81:3b:35:c0:
                    a4:8f:3e:a7:ff:75:26:68:12:b0:00:20:0a:c1:e2:
                    a3:17:0b:20:0a:44:f9:8a:2c:7b:5a:e1:cb:ce:db:
                    a3:72:7f:5a:ed:0c:5e:b6:c1:5f:b1:4a:ba:52:eb:
                    71:89:64:d4:fc:1b:c7:55:6f:f2:6d:18:e3:7a:71:
                    84:8d:b7
                Exponent: 65537 (0x10001)
        X509v3 extensions:
            X509v3 Subject Key Identifier: 
                92:94:BF:A7:B4:38:25:CB:E6:55:A7:69:47:EC:3F:79:77:0D:64:8E
            X509v3 Authority Key Identifier: 
                8E:B0:26:BC:3A:A3:FC:09:95:09:11:EC:56:27:F4:50:BA:2D:A4:08
            X509v3 Basic Constraints: critical
                CA:TRUE
    Signature Algorithm: sha256WithRSAEncryption
    Signature Value:
        6b:50:69:d8:2b:98:43:91:75:aa:f4:66:9b:69:70:19:b1:39:
        97:99:37:fc:f6:83:32:67:63:d4:66:a4:12:e6:33:33:48:92:
        d3:7e:5d:36:a2:d4:e6:ca:38:62:4f:7b:94:96:ca:d0:86:d4:
        b9:77:2a:06:6b:8f:ef:dc:a7:df:bf:d3:70:2f:62:9d:0b:50:
        ec:0c:b6:ac:cf:a3:5c:1b:36:04:74:d3:d5:72:31:e5:32:8c:
        c3:e6:34:90:51:c5:6b:06:61:76:33:bd:85:d4:b5:e2:17:38:
        3b:dd:fa:2c:23:bf:3a:75:37:6b:88:d6:d9:9a:1d:ea:a7:e6:
        b9:fb:05:79:4f:e0:7a:b4:70:b0:85:8b:ff:04:12:a6:71:06:
        04:c9:8c:84:7f:33:c2:73:b8:80:65:04:b3:44:54:ba:f6:38:
        6d:73:2b:77:41:a1:90:e0:f8:99:05:07:fc:15:33:3f:d1:41:
        4e:5a:47:55:de:ec:3d:e2:52:a0:36:82:cb:e2:3f:5e:6c:f7:
        49:e5:fc:9f:99:89:14:ac:f0:a2:89:10:d1:3f:1c:20:94:ad:
        e7:18:31:7f:c1:2c:ff:16:fe:09:ee:56:6e:d4:1d:65:cf:36:
        f5:2f:69:95:49:d3:58:4d:b6:67:7d:9d:fa:c4:75:e4:e7:2e:
        fe:43:fa:34:67:24:57:ac:f4:41:e8:de:62:e1:98:db:fe:a8:
        5d:0a:59:75:26:39:2f:06:cb:3f:48:8d:cf:b0:6c:ac:f1:1d:
        8f:bc:c1:1d:d6:d1:03:13:04:77:52:4d:a1:b1:0c:61:86:db:
        74:ed:66:01:bc:ed:81:5e:05:6b:45:0d:87:f0:16:35:03:20:
        32:70:ff:d3:74:7b:28:83:d8:f9:29:30:b8:4d:09:5f:69:44:
        e0:f5:9f:02:8e:6b:91:ab:f9:1e:9f:24:cb:0d:23:34:c3:16:
        86:98:28:5d:cf:eb:ed:42:76:91:cc:83:0f:50:58:53:be:f5:
        85:2e:4c:c6:f3:d2:74:96:cf:8e:1d:d5:92:7c:6f:25:a9:82:
        54:03:47:43:00:1e:4e:40:12:61:bf:82:02:a0:f3:93:5e:44:
        fc:a8:4d:ec:2d:36:f0:f6:48:24:b0:4a:ee:ef:4e:aa:42:26:
        76:2e:eb:b2:34:16:f5:c8:17:3e:a5:0d:33:75:ce:4a:93:03:
        71:6b:21:8a:be:80:58:29:62:1f:fb:9c:4e:6e:cd:41:f5:64:
        7d:6a:b7:d1:c4:5b:18:f4:31:71:4e:d0:e2:a7:05:bb:8a:65:
        ab:f6:cd:6a:ff:a3:28:62:01:00:c7:dd:0a:31:ca:50:22:a4:
        8e:01:33:fb:a0:d8:4b:8f
-----BEGIN CERTIFICATE-----
MIIFfTCCA2WgAwIBAgIUKSxRAiOLLSmIOMKA9IdfWMBbr+8wDQYJKoZIhvcNAQEL
BQAwTTELMAkGA1UEBhMCVVMxEzARBgNVBAgMCkNhbGlmb3JuaWExEjAQBgNVBAoM
CU9wZW5SZXN0eTEVMBMGA1UEAwwMU2lnbmluZy1DQS0xMCAXDTI1MDYyMTEyMTkx
NloYDzIxMjUwNTI4MTIxOTE2WjBNMQswCQYDVQQGEwJVUzETMBEGA1UECAwKQ2Fs
aWZvcm5pYTESMBAGA1UECgwJT3BlblJlc3R5MRUwEwYDVQQDDAxTaWduaW5nLUNB
LTIwggIiMA0GCSqGSIb3DQEBAQUAA4ICDwAwggIKAoICAQD5hyjSJM92w0KnGGxU
uG80lYQ8D0mAg4ah8LhtNt9jORjmjQuaBGuvg6ZrViuajo2pfztLlumEB5/EEyuS
fDJ2KjzfnbHU2lmbX3m461VBO+P257OZ+plV1RFNnpT+Qn05P2EN33oBAacs1cMv
zBTiOGvnrJgFUIQeyLeExRilm58nLKsaxYw/WMAPhOhpXgE2JB575DzaCRv/v8+L
ORc/n91+rk6EpSnXoPU1KIe0KwxlzB+U+7FHe40FSTXBaO6aXZbm56gGNvsa3/tn
KErqNq4WB1ySQ0yxJZ8y9OmKYG7tHvCrKvn4p2hgYThEIzzrTQTJ5+rwwW73KOEG
pA+pA2s7nXiXrAy3fyH99ZSPXuj18mu+klQz25fgF4WWPo1xbNifOn46T6jV88JE
GzTeS37hsZkxxSA5z8dEEVywB7xlitSupTYZyUwK9QIO6M0wJXxDyd6tjodWOkDo
2rtFTKU53/o0jjhK4LGznN6Gk0QlMfxUpMPhs554LIy9UgOcFmSikArcBbB/bRjM
W1leoLgQrf1wGFksgYeyRwWL0savZMvmvHXt3ecsnM8NVLEguWvkchqcE769+Qi3
gTs1wKSPPqf/dSZoErAAIArB4qMXCyAKRPmKLHta4cvO26Nyf1rtDF62wV+xSrpS
63GJZNT8G8dVb/JtGON6cYSNtwIDAQABo1MwUTAdBgNVHQ4EFgQUkpS/p7Q4Jcvm
VadpR+w/eXcNZI4wHwYDVR0jBBgwFoAUjrAmvDqj/AmVCRHsVif0ULotpAgwDwYD
VR0TAQH/BAUwAwEB/zANBgkqhkiG9w0BAQsFAAOCAgEAa1Bp2CuYQ5F1qvRmm2lw
GbE5l5k3/PaDMmdj1GakEuYzM0iS035dNqLU5so4Yk97lJbK0IbUuXcqBmuP79yn
37/TcC9inQtQ7Ay2rM+jXBs2BHTT1XIx5TKMw+Y0kFHFawZhdjO9hdS14hc4O936
LCO/OnU3a4jW2Zod6qfmufsFeU/gerRwsIWL/wQSpnEGBMmMhH8zwnO4gGUEs0RU
uvY4bXMrd0GhkOD4mQUH/BUzP9FBTlpHVd7sPeJSoDaCy+I/Xmz3SeX8n5mJFKzw
ookQ0T8cIJSt5xgxf8Es/xb+Ce5WbtQdZc829S9plUnTWE22Z32d+sR15Ocu/kP6
NGckV6z0QejeYuGY2/6oXQpZdSY5LwbLP0iNz7BsrPEdj7zBHdbRAxMEd1JNobEM
YYbbdO1mAbztgV4Fa0UNh/AWNQMgMnD/03R7KIPY+SkwuE0JX2lE4PWfAo5rkav5
Hp8kyw0jNMMWhpgoXc/r7UJ2kcyDD1BYU771hS5MxvPSdJbPjh3VknxvJamCVANH
QwAeTkASYb+CAqDzk15E/KhN7C028PZIJLBK7u9OqkImdi7rsjQW9cgXPqUNM3XO
SpMDcWshir6AWCliH/ucTm7NQfVkfWq30cRbGPQxcU7Q4qcFu4plq/bNav+jKGIB
AMfdCjHKUCKkjgEz+6DYS48=
-----END CERTIFICATE-----
