Certificate:
    Data:
        Version: 3 (0x2)
        Serial Number:
            3f:84:8f:36:54:84:d0:d8:0c:f8:1b:b0:14:f6:86:65:e4:9a:e4:88
        Signature Algorithm: sha256WithRSAEncryption
        Issuer: C = US, ST = California, O = OpenResty, CN = Signing-CA-2
        Validity
            Not Before: Dec  9 16:40:27 2024 GMT
            Not After : Nov 15 16:40:27 2124 GMT
        Subject: C = US, ST = California, O = OpenResty, CN = test.com
        Subject Public Key Info:
            Public Key Algorithm: rsaEncryption
                Public-Key: (1024 bit)
                Modulus:
                    00:9a:44:37:94:1a:5b:fb:70:a5:c4:44:bd:d4:4a:
                    8b:5d:01:7a:32:c9:97:a0:c2:14:30:ed:2b:ec:6c:
                    8b:b5:27:06:f5:67:e8:6e:a7:b8:61:14:b7:0e:98:
                    b7:1f:67:33:40:97:d8:e3:46:57:b5:04:c0:9f:43:
                    eb:72:11:3b:e2:45:00:02:1d:26:4e:6e:b8:7f:e2:
                    f4:be:a2:8c:cf:b6:d6:7f:f1:b1:0a:71:c5:a9:ac:
                    2a:7c:cc:c3:6e:5b:83:e9:6e:bf:f8:98:aa:94:0e:
                    b6:35:b1:21:22:26:7c:1c:2a:26:12:aa:e4:ac:18:
                    8c:ec:31:77:e8:db:eb:1a:11
                Exponent: 65537 (0x10001)
        X509v3 extensions:
            X509v3 Basic Constraints: 
                CA:FALSE
            Netscape Cert Type: 
                SSL Server
            Netscape Comment: 
                OpenSSL Generated Certificate
            X509v3 Subject Key Identifier: 
                FB:43:1A:55:61:83:16:15:F4:32:F5:FC:8D:BC:2C:E8:22:F1:CF:8A
            X509v3 Authority Key Identifier: 
                8C:59:76:86:88:23:2C:FA:26:A3:58:10:80:0E:F4:E5:DB:D5:D6:BB
    Signature Algorithm: sha256WithRSAEncryption
    Signature Value:
        86:1c:af:66:38:97:5b:a4:80:2c:d3:c3:82:0d:db:0a:c6:ac:
        18:e2:5d:f8:46:da:0c:cc:a3:4b:3c:5b:0f:95:b8:a6:37:ad:
        9d:f9:1a:0e:6e:3e:74:36:4c:47:f4:d6:f1:53:50:8a:74:53:
        7c:e7:15:ad:8c:79:d0:99:a6:6f:31:c5:d8:ac:a6:61:2c:ba:
        25:65:5c:e4:87:1f:03:d5:56:8d:f8:98:16:2c:eb:e7:08:e1:
        4f:72:b8:21:a3:d7:fc:bd:d2:a9:ab:3b:c6:49:96:ea:b9:c1:
        97:ae:06:f0:90:84:cc:df:b7:43:22:85:3f:b0:65:88:77:57:
        25:a7:64:9a:d1:e6:9d:23:26:7a:39:be:15:28:3c:69:46:ac:
        10:9c:2a:b3:53:a6:8c:24:0e:77:18:34:a3:36:59:07:e5:60:
        f5:a9:69:8c:91:f5:9d:4c:e3:51:b9:a4:6d:b6:f4:49:af:d1:
        e6:84:45:93:e0:27:0d:46:25:51:7a:2c:43:8f:4a:ec:6e:07:
        f1:97:41:c2:e0:d7:35:cf:11:16:82:40:9f:9f:e5:5e:9f:be:
        2e:cf:5d:b7:b4:07:a8:16:a5:66:58:1d:d2:db:72:ea:e6:fe:
        ea:0d:2a:a9:ae:e7:d0:ba:04:bd:d9:a5:9a:45:4b:c4:c0:b6:
        6a:20:20:c8
-----BEGIN CERTIFICATE-----
MIIDMjCCAhqgAwIBAgIUP4SPNlSE0NgM+BuwFPaGZeSa5IgwDQYJKoZIhvcNAQEL
BQAwTTELMAkGA1UEBhMCVVMxEzARBgNVBAgMCkNhbGlmb3JuaWExEjAQBgNVBAoM
CU9wZW5SZXN0eTEVMBMGA1UEAwwMU2lnbmluZy1DQS0yMCAXDTI0MTIwOTE2NDAy
N1oYDzIxMjQxMTE1MTY0MDI3WjBJMQswCQYDVQQGEwJVUzETMBEGA1UECAwKQ2Fs
aWZvcm5pYTESMBAGA1UECgwJT3BlblJlc3R5MREwDwYDVQQDDAh0ZXN0LmNvbTCB
nzANBgkqhkiG9w0BAQEFAAOBjQAwgYkCgYEAmkQ3lBpb+3ClxES91EqLXQF6MsmX
oMIUMO0r7GyLtScG9Wfobqe4YRS3Dpi3H2czQJfY40ZXtQTAn0PrchE74kUAAh0m
Tm64f+L0vqKMz7bWf/GxCnHFqawqfMzDbluD6W6/+JiqlA62NbEhIiZ8HComEqrk
rBiM7DF36NvrGhECAwEAAaOBjzCBjDAJBgNVHRMEAjAAMBEGCWCGSAGG+EIBAQQE
AwIGQDAsBglghkgBhvhCAQ0EHxYdT3BlblNTTCBHZW5lcmF0ZWQgQ2VydGlmaWNh
dGUwHQYDVR0OBBYEFPtDGlVhgxYV9DL1/I28LOgi8c+KMB8GA1UdIwQYMBaAFIxZ
doaIIyz6JqNYEIAO9OXb1da7MA0GCSqGSIb3DQEBCwUAA4IBAQCGHK9mOJdbpIAs
08OCDdsKxqwY4l34RtoMzKNLPFsPlbimN62d+RoObj50NkxH9NbxU1CKdFN85xWt
jHnQmaZvMcXYrKZhLLolZVzkhx8D1VaN+JgWLOvnCOFPcrgho9f8vdKpqzvGSZbq
ucGXrgbwkITM37dDIoU/sGWId1clp2Sa0eadIyZ6Ob4VKDxpRqwQnCqzU6aMJA53
GDSjNlkH5WD1qWmMkfWdTONRuaRttvRJr9HmhEWT4CcNRiVReixDj0rsbgfxl0HC
4Nc1zxEWgkCfn+Ven74uz123tAeoFqVmWB3S23Lq5v7qDSqprufQugS92aWaRUvE
wLZqICDI
-----END CERTIFICATE-----
Certificate:
    Data:
        Version: 3 (0x2)
        Serial Number:
            33:7d:07:a5:4d:f7:13:50:1c:5e:14:cf:4d:5e:b3:fb:e5:91:07:e9
        Signature Algorithm: sha256WithRSAEncryption
        Issuer: C = US, ST = California, O = OpenResty, CN = Signing-CA-1
        Validity
            Not Before: Dec  9 16:40:20 2024 GMT
            Not After : Nov 15 16:40:20 2124 GMT
        Subject: C = US, ST = California, O = OpenResty, CN = Signing-CA-2
        Subject Public Key Info:
            Public Key Algorithm: rsaEncryption
                Public-Key: (2048 bit)
                Modulus:
                    00:a1:46:dc:35:81:29:b6:3b:a1:da:9e:61:23:04:
                    55:ec:2d:42:56:6e:b2:6d:1a:0a:93:cd:54:14:74:
                    19:c4:22:70:c8:53:38:cc:07:44:3d:4c:de:99:d3:
                    e6:4c:d4:74:ec:10:8d:53:43:8b:82:23:ae:e2:c7:
                    2a:ba:df:ab:54:00:f3:dc:f6:0d:60:eb:f6:59:f0:
                    42:84:5b:76:84:03:06:e1:ff:68:1a:33:bc:f9:7c:
                    44:dc:d2:7a:aa:f3:6f:ca:7b:26:8f:ff:9a:3d:6a:
                    53:fc:ae:cc:2d:34:ec:e9:ae:13:92:71:74:3a:a5:
                    13:40:f1:84:7a:a6:a1:e7:31:7c:a2:32:e3:fb:ba:
                    4b:56:7a:c8:a7:eb:a9:d3:4f:34:3a:94:d3:38:ba:
                    12:58:fe:2b:5f:1c:fb:5f:b6:70:f3:6f:1c:c0:34:
                    c8:d1:86:98:0d:4d:74:78:55:32:7a:4d:05:10:aa:
                    a3:00:9f:9d:94:eb:da:80:6b:37:b1:e8:7c:19:26:
                    25:e5:4f:13:ab:85:80:78:a3:b3:a5:e3:8a:90:06:
                    00:4a:7f:76:70:ce:b0:8a:71:bc:82:fe:1d:02:67:
                    17:77:e2:db:96:27:53:6c:86:3c:f1:81:2b:61:28:
                    da:c0:23:04:48:35:46:92:19:11:2a:4d:24:cd:aa:
                    8d:39
                Exponent: 65537 (0x10001)
        X509v3 extensions:
            X509v3 Subject Key Identifier: 
                8C:59:76:86:88:23:2C:FA:26:A3:58:10:80:0E:F4:E5:DB:D5:D6:BB
            X509v3 Authority Key Identifier: 
                18:AE:C9:84:F7:75:DE:3C:F7:99:18:79:65:8E:99:BD:F9:10:90:EE
            X509v3 Basic Constraints: critical
                CA:TRUE
    Signature Algorithm: sha256WithRSAEncryption
    Signature Value:
        07:38:f1:24:cd:0b:9c:50:f5:b4:98:d2:00:db:ef:73:ad:d7:
        0f:5f:ca:a9:d1:38:65:e0:c6:0e:9d:9a:33:1c:6b:3f:dc:e3:
        86:37:78:81:f3:7a:61:90:b7:72:55:42:65:ba:c3:4c:b1:67:
        be:a8:65:30:88:87:7b:5c:22:b4:30:e0:4f:d9:38:2b:29:53:
        13:b4:0a:ea:f4:3b:13:a0:94:47:92:c8:0d:c8:cb:83:2b:e4:
        d7:f7:d8:cd:4d:81:14:01:d1:36:52:3f:b7:b7:9d:60:e9:4c:
        ff:5a:4e:80:52:96:a2:77:b0:7f:b6:3f:37:04:37:7e:8f:9c:
        cc:86:52:d7:67:8a:8e:fb:11:7b:16:56:c5:cd:47:cd:86:b8:
        b3:49:ee:e2:79:cc:0c:61:6b:33:70:7b:a7:38:8f:9e:b0:23:
        be:7e:10:04:c1:08:36:25:47:90:e1:88:63:34:44:bc:de:55:
        71:e3:f5:e4:f4:5f:14:b3:1d:b6:24:13:db:84:5a:3d:7d:e7:
        9a:e7:36:9e:49:60:7b:95:2c:8c:df:66:74:2e:f2:87:33:87:
        16:2b:b4:e2:72:56:d5:21:33:b4:6f:97:d3:43:d3:2a:21:84:
        18:02:6e:3e:d8:07:62:c6:cf:95:32:4f:42:0a:dc:65:01:0c:
        74:e5:23:cc
-----BEGIN CERTIFICATE-----
MIIDfTCCAmWgAwIBAgIUM30HpU33E1AcXhTPTV6z++WRB+kwDQYJKoZIhvcNAQEL
BQAwTTELMAkGA1UEBhMCVVMxEzARBgNVBAgMCkNhbGlmb3JuaWExEjAQBgNVBAoM
CU9wZW5SZXN0eTEVMBMGA1UEAwwMU2lnbmluZy1DQS0xMCAXDTI0MTIwOTE2NDAy
MFoYDzIxMjQxMTE1MTY0MDIwWjBNMQswCQYDVQQGEwJVUzETMBEGA1UECAwKQ2Fs
aWZvcm5pYTESMBAGA1UECgwJT3BlblJlc3R5MRUwEwYDVQQDDAxTaWduaW5nLUNB
LTIwggEiMA0GCSqGSIb3DQEBAQUAA4IBDwAwggEKAoIBAQChRtw1gSm2O6HanmEj
BFXsLUJWbrJtGgqTzVQUdBnEInDIUzjMB0Q9TN6Z0+ZM1HTsEI1TQ4uCI67ixyq6
36tUAPPc9g1g6/ZZ8EKEW3aEAwbh/2gaM7z5fETc0nqq82/KeyaP/5o9alP8rswt
NOzprhOScXQ6pRNA8YR6pqHnMXyiMuP7uktWesin66nTTzQ6lNM4uhJY/itfHPtf
tnDzbxzANMjRhpgNTXR4VTJ6TQUQqqMAn52U69qAazex6HwZJiXlTxOrhYB4o7Ol
44qQBgBKf3ZwzrCKcbyC/h0CZxd34tuWJ1NshjzxgSthKNrAIwRINUaSGREqTSTN
qo05AgMBAAGjUzBRMB0GA1UdDgQWBBSMWXaGiCMs+iajWBCADvTl29XWuzAfBgNV
HSMEGDAWgBQYrsmE93XePPeZGHlljpm9+RCQ7jAPBgNVHRMBAf8EBTADAQH/MA0G
CSqGSIb3DQEBCwUAA4IBAQAHOPEkzQucUPW0mNIA2+9zrdcPX8qp0Thl4MYOnZoz
HGs/3OOGN3iB83phkLdyVUJlusNMsWe+qGUwiId7XCK0MOBP2TgrKVMTtArq9DsT
oJRHksgNyMuDK+TX99jNTYEUAdE2Uj+3t51g6Uz/Wk6AUpaid7B/tj83BDd+j5zM
hlLXZ4qO+xF7FlbFzUfNhrizSe7iecwMYWszcHunOI+esCO+fhAEwQg2JUeQ4Yhj
NES83lVx4/Xk9F8Usx22JBPbhFo9feea5zaeSWB7lSyM32Z0LvKHM4cWK7TiclbV
ITO0b5fTQ9MqIYQYAm4+2Adixs+VMk9CCtxlAQx05SPM
-----END CERTIFICATE-----
Certificate:
    Data:
        Version: 3 (0x2)
        Serial Number:
            0c:b5:bf:06:eb:46:8b:03:de:7c:d2:1b:90:8b:34:4b:6b:00:2f:de
        Signature Algorithm: sha256WithRSAEncryption
        Issuer: C = US, ST = California, L = San Francisco, O = OpenResty, CN = Root CA
        Validity
            Not Before: Dec  9 16:40:17 2024 GMT
            Not After : Nov 15 16:40:17 2124 GMT
        Subject: C = US, ST = California, O = OpenResty, CN = Signing-CA-1
        Subject Public Key Info:
            Public Key Algorithm: rsaEncryption
                Public-Key: (2048 bit)
                Modulus:
                    00:c8:04:9f:f7:9b:cc:75:83:f1:2e:d6:15:e3:4a:
                    99:7c:e6:5e:60:2f:1e:7f:a4:91:6b:de:d0:5c:4b:
                    59:a5:b4:c1:b3:35:90:7d:7a:98:d3:0e:79:48:61:
                    fb:0f:58:23:fd:b0:f0:7b:77:c8:82:37:d0:6a:4d:
                    94:72:a1:06:dd:32:a8:60:79:08:16:2b:ed:0b:5b:
                    ce:a0:f5:48:ea:5f:39:78:21:39:dd:68:f3:b7:ac:
                    de:7f:a2:fa:9f:ca:9a:a3:ba:33:c1:fc:5f:90:19:
                    63:36:8f:a6:ae:58:d8:7d:e9:d3:af:b5:b6:44:93:
                    cc:ed:6c:37:1a:b5:84:ee:f7:6d:e4:85:cf:21:44:
                    b3:71:34:06:4d:94:10:54:e5:45:7a:c8:e0:0e:b3:
                    03:04:5a:32:d7:99:d3:f8:2d:d3:97:a2:ed:be:c7:
                    72:86:a4:17:da:eb:b4:86:fb:e8:13:cd:8a:fa:ec:
                    f7:59:03:c8:1c:c7:12:0b:91:ca:c7:b1:5d:9f:72:
                    34:9d:8b:60:0e:9b:56:19:03:98:e3:51:34:5e:66:
                    c7:6f:b5:48:f7:b7:b6:b9:48:04:a6:46:f4:d8:25:
                    b5:f4:ee:a0:00:ce:cf:47:90:c4:fe:1e:19:b7:91:
                    c0:87:84:57:bc:2e:18:ee:1a:a4:1f:b2:b1:58:08:
                    53:af
                Exponent: 65537 (0x10001)
        X509v3 extensions:
            X509v3 Subject Key Identifier: 
                18:AE:C9:84:F7:75:DE:3C:F7:99:18:79:65:8E:99:BD:F9:10:90:EE
            X509v3 Authority Key Identifier: 
                04:50:99:50:3E:93:4D:87:59:5C:D6:56:BD:2C:BC:32:97:42:C5:6E
            X509v3 Basic Constraints: critical
                CA:TRUE
    Signature Algorithm: sha256WithRSAEncryption
    Signature Value:
        06:6c:e5:3d:e9:c0:f1:d1:59:15:20:e1:01:94:83:27:ca:f5:
        03:b0:31:48:fd:cb:3f:15:df:50:bb:d7:4c:f8:88:78:10:0a:
        e1:48:a7:45:e6:69:2a:f1:05:ac:fa:df:1f:ed:63:3f:c6:e4:
        33:ee:a9:29:ed:25:f3:90:bb:d4:f0:a2:cf:01:0f:e2:34:41:
        cf:a0:d0:7a:21:d7:3e:b6:5f:8c:ef:ac:68:7b:2e:70:c1:e2:
        bb:aa:4e:d3:59:e2:09:20:51:42:cd:0c:e2:02:ec:63:38:2b:
        bc:b5:2b:04:b6:bc:10:b3:ed:6a:aa:7c:18:c0:03:fe:c4:78:
        c8:67:59:fd:6d:d3:6b:57:a4:9b:c5:75:7f:bf:e9:56:66:51:
        eb:af:4f:f7:56:61:e3:7f:48:6a:d0:22:72:20:76:df:e7:e1:
        e9:c4:91:27:7d:34:35:8a:7e:38:93:1d:66:a4:f4:55:df:03:
        4c:f1:60:14:14:1e:f5:a7:b7:76:6f:7b:56:64:5d:6e:bf:d1:
        bc:8b:7d:b0:e2:d1:40:53:08:02:da:6c:cf:9c:b2:cc:66:dc:
        bc:f9:6c:33:77:aa:42:5b:52:af:39:6f:a3:37:ea:b7:66:94:
        f3:63:80:98:83:68:04:c7:5c:45:20:30:0a:85:02:96:cb:6d:
        93:40:28:87
-----BEGIN CERTIFICATE-----
MIIDkDCCAnigAwIBAgIUDLW/ButGiwPefNIbkIs0S2sAL94wDQYJKoZIhvcNAQEL
BQAwYDELMAkGA1UEBhMCVVMxEzARBgNVBAgMCkNhbGlmb3JuaWExFjAUBgNVBAcM
DVNhbiBGcmFuY2lzY28xEjAQBgNVBAoMCU9wZW5SZXN0eTEQMA4GA1UEAwwHUm9v
dCBDQTAgFw0yNDEyMDkxNjQwMTdaGA8yMTI0MTExNTE2NDAxN1owTTELMAkGA1UE
BhMCVVMxEzARBgNVBAgMCkNhbGlmb3JuaWExEjAQBgNVBAoMCU9wZW5SZXN0eTEV
MBMGA1UEAwwMU2lnbmluZy1DQS0xMIIBIjANBgkqhkiG9w0BAQEFAAOCAQ8AMIIB
CgKCAQEAyASf95vMdYPxLtYV40qZfOZeYC8ef6SRa97QXEtZpbTBszWQfXqY0w55
SGH7D1gj/bDwe3fIgjfQak2UcqEG3TKoYHkIFivtC1vOoPVI6l85eCE53Wjzt6ze
f6L6n8qao7ozwfxfkBljNo+mrljYfenTr7W2RJPM7Ww3GrWE7vdt5IXPIUSzcTQG
TZQQVOVFesjgDrMDBFoy15nT+C3Tl6LtvsdyhqQX2uu0hvvoE82K+uz3WQPIHMcS
C5HKx7Fdn3I0nYtgDptWGQOY41E0XmbHb7VI97e2uUgEpkb02CW19O6gAM7PR5DE
/h4Zt5HAh4RXvC4Y7hqkH7KxWAhTrwIDAQABo1MwUTAdBgNVHQ4EFgQUGK7JhPd1
3jz3mRh5ZY6ZvfkQkO4wHwYDVR0jBBgwFoAUBFCZUD6TTYdZXNZWvSy8MpdCxW4w
DwYDVR0TAQH/BAUwAwEB/zANBgkqhkiG9w0BAQsFAAOCAQEABmzlPenA8dFZFSDh
AZSDJ8r1A7AxSP3LPxXfULvXTPiIeBAK4UinReZpKvEFrPrfH+1jP8bkM+6pKe0l
85C71PCizwEP4jRBz6DQeiHXPrZfjO+saHsucMHiu6pO01niCSBRQs0M4gLsYzgr
vLUrBLa8ELPtaqp8GMAD/sR4yGdZ/W3Ta1ekm8V1f7/pVmZR669P91Zh439IatAi
ciB23+fh6cSRJ300NYp+OJMdZqT0Vd8DTPFgFBQe9ae3dm97VmRdbr/RvIt9sOLR
QFMIAtpsz5yyzGbcvPlsM3eqQltSrzlvozfqt2aU82OAmINoBMdcRSAwCoUClstt
k0Aohw==
-----END CERTIFICATE-----
